; Function Attrs: mustprogress nounwind uwtable
define void @_ZN5boost4urls3urlD2Ev(ptr nocapture noundef nonnull align 8 dereferenceable(216) %0) unnamed_addr #1 align 2 personality ptr @__gxx_personality_v0 {
  store ptr getelementptr inbounds inrange(-16, 40) (i8, ptr @_ZTVN5boost4urls3urlE, i64 16), ptr %0, align 8, !tbaa !3
  %2 = getelementptr inbounds nuw i8, ptr %0, i64 200
  %3 = load ptr, ptr %2, align 8, !tbaa !6
  %.not = icmp eq ptr %3, null
  br i1 %.not, label %4, label %_ZN5boost4urls3url10deallocateEPc.exit

_ZN5boost4urls3url10deallocateEPc.exit:           ; preds = %1
  tail call void @_ZdaPv(ptr noundef nonnull %3) #21
  br label %4

4:                                                ; preds = %_ZN5boost4urls3url10deallocateEPc.exit, %1
  ret void
}